target datalayout = "e-m:e-p270:32:32-p271:32:32-p272:64:64-i64:64-i128:128-f80:128-n8:16:32:64-S128"
target triple = "x86_64-pc-linux-gnu"

%class.QObject = type { ptr, %class.QScopedPointer }
%class.QScopedPointer = type { ptr }
%class.QString = type { %struct.QArrayDataPointer.4 }
%struct.QArrayDataPointer.4 = type { ptr, ptr, i64 }
%class.QModelIndex = type { i32, i32, i64, ptr }
%class.QFlags.26 = type { i32 }
%class.QPaintDevice.base = type <{ ptr, i16 }>
%class.AboutDialog = type { %class.QDialog, ptr, %class.QString, %class.QString }
%class.QDialog = type { %class.QWidget }
%class.QWidget = type { %class.QObject, %class.QPaintDevice.base, ptr }
%class.Ui_AboutDialog = type { ptr, ptr, ptr, ptr, ptr, ptr, ptr, ptr, ptr, ptr, ptr, ptr, ptr, ptr, ptr, ptr, ptr, ptr, ptr, ptr, ptr, ptr, ptr, ptr, ptr, ptr, ptr, ptr, ptr, ptr, ptr, ptr, ptr, ptr, ptr, ptr }
%class.QFontMetrics = type { %class.QExplicitlySharedDataPointer }
%class.QExplicitlySharedDataPointer = type { ptr }
%class.QWidgetData = type { i64, i32, %class.QFlags.26, i32, %class.QRect, [4 x i8], %class.QPalette, %class.QFont, %class.QRect }
%class.QPalette = type <{ ptr, i32, [4 x i8] }>
%class.QFont = type <{ %class.QExplicitlySharedDataPointer, i32, [4 x i8] }>
%class.QRect = type { i32, i32, i32, i32 }
%class.QObjectData = type { ptr, ptr, ptr, %class.QList.85, i32, i32, ptr, %class.QBindingStorage }
%class.QList.85 = type { %struct.QArrayDataPointer.88 }
%struct.QArrayDataPointer.88 = type { ptr, ptr, i64 }
%class.QBindingStorage = type { ptr, ptr }

; Function Attrs: mustprogress nounwind uwtable
define linkonce_odr noundef ptr @_ZNK14QScopedPointerI11QObjectData21QScopedPointerDeleterIS0_EEptEv(ptr noundef nonnull align 8 dereferenceable(8) %0) #2 comdat align 2 {
  %2 = alloca ptr, align 8
  store ptr %0, ptr %2, align 8
  %3 = load ptr, ptr %2, align 8
  %4 = getelementptr inbounds %class.QScopedPointer, ptr %3, i32 0, i32 0
  %5 = load ptr, ptr %4, align 8
  ret ptr %5
}

; Function Attrs: mustprogress nounwind uwtable
define linkonce_odr noundef i32 @_ZNK5QRect5widthEv(ptr noundef nonnull align 4 dereferenceable(16) %0) #2 comdat align 2 {
  %2 = alloca ptr, align 8
  store ptr %0, ptr %2, align 8
  %3 = load ptr, ptr %2, align 8
  %4 = getelementptr inbounds %class.QRect, ptr %3, i32 0, i32 2
  %5 = load i32, ptr %4, align 4
  %6 = getelementptr inbounds %class.QRect, ptr %3, i32 0, i32 0
  %7 = load i32, ptr %6, align 4
  %8 = sub i32 %5, %7
  %9 = add i32 %8, 1
  ret i32 %9
}

; Function Attrs: mustprogress nounwind uwtable
define linkonce_odr noundef ptr @_ZNK7QObject6parentEv(ptr noundef nonnull align 8 dereferenceable(16) %0) #2 comdat align 2 {
  %2 = alloca ptr, align 8
  store ptr %0, ptr %2, align 8
  %3 = load ptr, ptr %2, align 8
  %4 = getelementptr inbounds %class.QObject, ptr %3, i32 0, i32 1
  %5 = call noundef ptr @_ZNK14QScopedPointerI11QObjectData21QScopedPointerDeleterIS0_EEptEv(ptr noundef nonnull align 8 dereferenceable(8) %4) #16
  %6 = getelementptr inbounds %class.QObjectData, ptr %5, i32 0, i32 2
  %7 = load ptr, ptr %6, align 8
  ret ptr %7
}

; Function Attrs: mustprogress nounwind uwtable
define linkonce_odr noundef i32 @_ZNK7QWidget5widthEv(ptr noundef nonnull align 8 dereferenceable(40) %0) #2 comdat align 2 {
  %2 = alloca ptr, align 8
  store ptr %0, ptr %2, align 8
  %3 = load ptr, ptr %2, align 8
  %4 = getelementptr inbounds %class.QWidget, ptr %3, i32 0, i32 2
  %5 = load ptr, ptr %4, align 8
  %6 = getelementptr inbounds %class.QWidgetData, ptr %5, i32 0, i32 4
  %7 = call noundef i32 @_ZNK5QRect5widthEv(ptr noundef nonnull align 4 dereferenceable(16) %6) #16
  ret i32 %7
}

; Function Attrs: mustprogress uwtable
define linkonce_odr noundef ptr @_ZNK7QWidget12parentWidgetEv(ptr noundef nonnull align 8 dereferenceable(40) %0) #0 comdat align 2 {
  %2 = alloca ptr, align 8
  store ptr %0, ptr %2, align 8
  %3 = load ptr, ptr %2, align 8
  %4 = call noundef ptr @_ZNK7QObject6parentEv(ptr noundef nonnull align 8 dereferenceable(16) %3)
  ret ptr %4
}

; Function Attrs: mustprogress nounwind uwtable
define linkonce_odr void @_ZN11QModelIndexC2Ev(ptr noundef nonnull align 8 dereferenceable(24) %0) unnamed_addr #2 comdat align 2 {
  %2 = alloca ptr, align 8
  store ptr %0, ptr %2, align 8
  %3 = load ptr, ptr %2, align 8
  %4 = getelementptr inbounds %class.QModelIndex, ptr %3, i32 0, i32 0
  store i32 -1, ptr %4, align 8
  %5 = getelementptr inbounds %class.QModelIndex, ptr %3, i32 0, i32 1
  store i32 -1, ptr %5, align 4
  %6 = getelementptr inbounds %class.QModelIndex, ptr %3, i32 0, i32 2
  store i64 0, ptr %6, align 8
  %7 = getelementptr inbounds %class.QModelIndex, ptr %3, i32 0, i32 3
  store ptr null, ptr %7, align 8
  ret void
}

; Function Attrs: mustprogress uwtable
define linkonce_odr void @_ZNK7QWidget11fontMetricsEv(ptr dead_on_unwind noalias writable sret(%class.QFontMetrics) align 8 %0, ptr noundef nonnull align 8 dereferenceable(40) %1) #0 comdat align 2 {
  %3 = alloca ptr, align 8
  %4 = alloca ptr, align 8
  store ptr %0, ptr %3, align 8
  store ptr %1, ptr %4, align 8
  %5 = load ptr, ptr %4, align 8
  %6 = getelementptr inbounds %class.QWidget, ptr %5, i32 0, i32 2
  %7 = load ptr, ptr %6, align 8
  %8 = getelementptr inbounds %class.QWidgetData, ptr %7, i32 0, i32 7
  call void @_ZN12QFontMetricsC1ERK5QFont(ptr noundef nonnull align 8 dereferenceable(8) %0, ptr noundef nonnull align 8 dereferenceable(12) %8)
  ret void
}

; Function Attrs: mustprogress uwtable
define void @_ZN11AboutDialog9showEventEP10QShowEvent(ptr noundef nonnull align 8 dereferenceable(96) %0, ptr noundef %1) unnamed_addr #0 align 2 personality ptr @__gxx_personality_v0 {
  %3 = alloca ptr, align 8
  %4 = alloca ptr, align 8
  %5 = alloca i32, align 4
  %6 = alloca %class.QFontMetrics, align 8
  %7 = alloca ptr, align 8
  %8 = alloca i32, align 4
  %9 = alloca ptr, align 8
  %10 = alloca i32, align 4
  %11 = alloca %class.QModelIndex, align 8
  %12 = alloca i32, align 4
  %13 = alloca %class.QModelIndex, align 8
  store ptr %0, ptr %3, align 8
  store ptr %1, ptr %4, align 8
  %14 = load ptr, ptr %3, align 8
  call void @_ZNK7QWidget11fontMetricsEv(ptr dead_on_unwind writable sret(%class.QFontMetrics) align 8 %6, ptr noundef nonnull align 8 dereferenceable(40) %14)
  %15 = invoke noundef i32 @_ZNK12QFontMetrics6heightEv(ptr noundef nonnull align 8 dereferenceable(8) %6)
          to label %16 unwind label %44

16:                                               ; preds = %2
  call void @_ZN12QFontMetricsD1Ev(ptr noundef nonnull align 8 dereferenceable(8) %6) #16
  store i32 %15, ptr %5, align 4
  %17 = getelementptr inbounds %class.AboutDialog, ptr %14, i32 0, i32 1
  %18 = load ptr, ptr %17, align 8
  %19 = getelementptr inbounds %class.Ui_AboutDialog, ptr %18, i32 0, i32 13
  %20 = load ptr, ptr %19, align 8
  %21 = call noundef ptr @_ZNK17QAbstractItemView5modelEv(ptr noundef nonnull align 8 dereferenceable(40) %20)
  store ptr %21, ptr %9, align 8
  %22 = load ptr, ptr %9, align 8
  call void @_ZN11QModelIndexC2Ev(ptr noundef nonnull align 8 dereferenceable(24) %11) #16
  %23 = load ptr, ptr %22, align 8
  %24 = getelementptr inbounds ptr, ptr %23, i64 16
  %25 = load ptr, ptr %24, align 8
  %26 = call noundef i32 %25(ptr noundef nonnull align 8 dereferenceable(16) %22, ptr noundef nonnull align 8 dereferenceable(24) %11)
  store i32 %26, ptr %10, align 4
  %27 = load i32, ptr %10, align 4
  %28 = icmp ne i32 %27, 0
  br i1 %28, label %29, label %48

29:                                               ; preds = %16
  %30 = getelementptr inbounds %class.AboutDialog, ptr %14, i32 0, i32 1
  %31 = load ptr, ptr %30, align 8
  %32 = getelementptr inbounds %class.Ui_AboutDialog, ptr %31, i32 0, i32 13
  %33 = load ptr, ptr %32, align 8
  %34 = getelementptr inbounds %class.AboutDialog, ptr %14, i32 0, i32 1
  %35 = load ptr, ptr %34, align 8
  %36 = getelementptr inbounds %class.Ui_AboutDialog, ptr %35, i32 0, i32 13
  %37 = load ptr, ptr %36, align 8
  %38 = call noundef ptr @_ZNK7QWidget12parentWidgetEv(ptr noundef nonnull align 8 dereferenceable(40) %37)
  %39 = call noundef i32 @_ZNK7QWidget5widthEv(ptr noundef nonnull align 8 dereferenceable(40) %38)
  %40 = load i32, ptr %10, align 4
  %41 = sdiv i32 %39, %40
  %42 = load i32, ptr %5, align 4
  %43 = sub i32 %41, %42
  call void @_ZN9QTreeView14setColumnWidthEii(ptr noundef nonnull align 8 dereferenceable(40) %33, i32 noundef 0, i32 noundef %43)
  br label %48

44:                                               ; preds = %2
  %45 = landingpad { ptr, i32 }
          cleanup
  %46 = extractvalue { ptr, i32 } %45, 0
  store ptr %46, ptr %7, align 8
  %47 = extractvalue { ptr, i32 } %45, 1
  store i32 %47, ptr %8, align 4
  call void @_ZN12QFontMetricsD1Ev(ptr noundef nonnull align 8 dereferenceable(8) %6) #16
  br label %135

48:                                               ; preds = %29, %16
  %49 = getelementptr inbounds %class.AboutDialog, ptr %14, i32 0, i32 1
  %50 = load ptr, ptr %49, align 8
  %51 = getelementptr inbounds %class.Ui_AboutDialog, ptr %50, i32 0, i32 17
  %52 = load ptr, ptr %51, align 8
  call void @_ZN9QTreeView22resizeColumnToContentsEi(ptr noundef nonnull align 8 dereferenceable(40) %52, i32 noundef 0)
  %53 = getelementptr inbounds %class.AboutDialog, ptr %14, i32 0, i32 1
  %54 = load ptr, ptr %53, align 8
  %55 = getelementptr inbounds %class.Ui_AboutDialog, ptr %54, i32 0, i32 17
  %56 = load ptr, ptr %55, align 8
  call void @_ZN9QTreeView22resizeColumnToContentsEi(ptr noundef nonnull align 8 dereferenceable(40) %56, i32 noundef 2)
  %57 = getelementptr inbounds %class.AboutDialog, ptr %14, i32 0, i32 1
  %58 = load ptr, ptr %57, align 8
  %59 = getelementptr inbounds %class.Ui_AboutDialog, ptr %58, i32 0, i32 17
  %60 = load ptr, ptr %59, align 8
  %61 = getelementptr inbounds %class.AboutDialog, ptr %14, i32 0, i32 1
  %62 = load ptr, ptr %61, align 8
  %63 = getelementptr inbounds %class.Ui_AboutDialog, ptr %62, i32 0, i32 17
  %64 = load ptr, ptr %63, align 8
  %65 = call noundef ptr @_ZNK7QWidget12parentWidgetEv(ptr noundef nonnull align 8 dereferenceable(40) %64)
  %66 = call noundef i32 @_ZNK7QWidget5widthEv(ptr noundef nonnull align 8 dereferenceable(40) %65)
  %67 = getelementptr inbounds %class.AboutDialog, ptr %14, i32 0, i32 1
  %68 = load ptr, ptr %67, align 8
  %69 = getelementptr inbounds %class.Ui_AboutDialog, ptr %68, i32 0, i32 17
  %70 = load ptr, ptr %69, align 8
  %71 = call noundef i32 @_ZNK9QTreeView11columnWidthEi(ptr noundef nonnull align 8 dereferenceable(40) %70, i32 noundef 0)
  %72 = getelementptr inbounds %class.AboutDialog, ptr %14, i32 0, i32 1
  %73 = load ptr, ptr %72, align 8
  %74 = getelementptr inbounds %class.Ui_AboutDialog, ptr %73, i32 0, i32 17
  %75 = load ptr, ptr %74, align 8
  %76 = call noundef i32 @_ZNK9QTreeView11columnWidthEi(ptr noundef nonnull align 8 dereferenceable(40) %75, i32 noundef 2)
  %77 = add i32 %71, %76
  %78 = sub i32 %66, %77
  call void @_ZN9QTreeView14setColumnWidthEii(ptr noundef nonnull align 8 dereferenceable(40) %60, i32 noundef 1, i32 noundef %78)
  %79 = getelementptr inbounds %class.AboutDialog, ptr %14, i32 0, i32 1
  %80 = load ptr, ptr %79, align 8
  %81 = getelementptr inbounds %class.Ui_AboutDialog, ptr %80, i32 0, i32 25
  %82 = load ptr, ptr %81, align 8
  %83 = call noundef ptr @_ZNK17QAbstractItemView5modelEv(ptr noundef nonnull align 8 dereferenceable(40) %82)
  store ptr %83, ptr %9, align 8
  store i32 0, ptr %12, align 4
  br label %84

84:                                               ; preds = %104, %48
  %85 = load ptr, ptr %9, align 8
  %86 = icmp ne ptr %85, null
  br i1 %86, label %87, label %96

87:                                               ; preds = %84
  %88 = load i32, ptr %12, align 4
  %89 = load ptr, ptr %9, align 8
  call void @_ZN11QModelIndexC2Ev(ptr noundef nonnull align 8 dereferenceable(24) %13) #16
  %90 = load ptr, ptr %89, align 8
  %91 = getelementptr inbounds ptr, ptr %90, i64 16
  %92 = load ptr, ptr %91, align 8
  %93 = call noundef i32 %92(ptr noundef nonnull align 8 dereferenceable(16) %89, ptr noundef nonnull align 8 dereferenceable(24) %13)
  %94 = sub i32 %93, 1
  %95 = icmp slt i32 %88, %94
  br label %96

96:                                               ; preds = %87, %84
  %97 = phi i1 [ false, %84 ], [ %95, %87 ]
  br i1 %97, label %98, label %107

98:                                               ; preds = %96
  %99 = getelementptr inbounds %class.AboutDialog, ptr %14, i32 0, i32 1
  %100 = load ptr, ptr %99, align 8
  %101 = getelementptr inbounds %class.Ui_AboutDialog, ptr %100, i32 0, i32 25
  %102 = load ptr, ptr %101, align 8
  %103 = load i32, ptr %12, align 4
  call void @_ZN9QTreeView22resizeColumnToContentsEi(ptr noundef nonnull align 8 dereferenceable(40) %102, i32 noundef %103)
  br label %104

104:                                              ; preds = %98
  %105 = load i32, ptr %12, align 4
  %106 = add i32 %105, 1
  store i32 %106, ptr %12, align 4
  br label %84, !llvm.loop !11

107:                                              ; preds = %96
  %108 = getelementptr inbounds %class.AboutDialog, ptr %14, i32 0, i32 1
  %109 = load ptr, ptr %108, align 8
  %110 = getelementptr inbounds %class.Ui_AboutDialog, ptr %109, i32 0, i32 29
  %111 = load ptr, ptr %110, align 8
  call void @_ZN9QTreeView22resizeColumnToContentsEi(ptr noundef nonnull align 8 dereferenceable(40) %111, i32 noundef 0)
  %112 = getelementptr inbounds %class.AboutDialog, ptr %14, i32 0, i32 1
  %113 = load ptr, ptr %112, align 8
  %114 = getelementptr inbounds %class.Ui_AboutDialog, ptr %113, i32 0, i32 29
  %115 = load ptr, ptr %114, align 8
  %116 = getelementptr inbounds %class.AboutDialog, ptr %14, i32 0, i32 1
  %117 = load ptr, ptr %116, align 8
  %118 = getelementptr inbounds %class.Ui_AboutDialog, ptr %117, i32 0, i32 29
  %119 = load ptr, ptr %118, align 8
  %120 = call noundef i32 @_ZNK9QTreeView11columnWidthEi(ptr noundef nonnull align 8 dereferenceable(40) %119, i32 noundef 0)
  %121 = load i32, ptr %5, align 4
  %122 = mul i32 %121, 2
  %123 = add i32 %120, %122
  call void @_ZN9QTreeView14setColumnWidthEii(ptr noundef nonnull align 8 dereferenceable(40) %115, i32 noundef 0, i32 noundef %123)
  %124 = getelementptr inbounds %class.AboutDialog, ptr %14, i32 0, i32 1
  %125 = load ptr, ptr %124, align 8
  %126 = getelementptr inbounds %class.Ui_AboutDialog, ptr %125, i32 0, i32 29
  %127 = load ptr, ptr %126, align 8
  %128 = load i32, ptr %5, align 4
  %129 = mul i32 %128, 12
  call void @_ZN9QTreeView14setColumnWidthEii(ptr noundef nonnull align 8 dereferenceable(40) %127, i32 noundef 1, i32 noundef %129)
  %130 = getelementptr inbounds %class.AboutDialog, ptr %14, i32 0, i32 1
  %131 = load ptr, ptr %130, align 8
  %132 = getelementptr inbounds %class.Ui_AboutDialog, ptr %131, i32 0, i32 29
  %133 = load ptr, ptr %132, align 8
  call void @_ZN9QTreeView22resizeColumnToContentsEi(ptr noundef nonnull align 8 dereferenceable(40) %133, i32 noundef 2)
  %134 = load ptr, ptr %4, align 8
  call void @_ZN7QDialog9showEventEP10QShowEvent(ptr noundef nonnull align 8 dereferenceable(40) %14, ptr noundef %134)
  ret void

135:                                              ; preds = %44
  %136 = load ptr, ptr %7, align 8
  %137 = load i32, ptr %8, align 4
  %138 = insertvalue { ptr, i32 } poison, ptr %136, 0
  %139 = insertvalue { ptr, i32 } %138, i32 %137, 1
  resume { ptr, i32 } %139
}