; Function Attrs: mustprogress uwtable
define void @_ZN11AboutDialog9showEventEP10QShowEvent(ptr noundef nonnull align 8 dereferenceable(96) %0, ptr noundef %1) unnamed_addr #0 align 2 personality ptr @__gxx_personality_v0 {
  %3 = alloca %class.QFontMetrics, align 8
  %4 = alloca %class.QModelIndex, align 8
  %5 = alloca %class.QModelIndex, align 8
  %6 = getelementptr inbounds i8, ptr %0, i64 32
  %7 = load ptr, ptr %6, align 8, !noalias !104
  %8 = getelementptr inbounds i8, ptr %7, i64 56
  call void @_ZN12QFontMetricsC1ERK5QFont(ptr noundef nonnull align 8 dereferenceable(8) %3, ptr noundef nonnull align 8 dereferenceable(12) %8)
  %9 = invoke noundef i32 @_ZNK12QFontMetrics6heightEv(ptr noundef nonnull align 8 dereferenceable(8) %3)
          to label %10 unwind label %40

10:                                               ; preds = %2
  call void @_ZN12QFontMetricsD1Ev(ptr noundef nonnull align 8 dereferenceable(8) %3) #18
  %11 = getelementptr inbounds i8, ptr %0, i64 40
  %12 = load ptr, ptr %11, align 8
  %13 = getelementptr inbounds i8, ptr %12, i64 104
  %14 = load ptr, ptr %13, align 8
  %15 = call noundef ptr @_ZNK17QAbstractItemView5modelEv(ptr noundef nonnull align 8 dereferenceable(40) %14)
  store i32 -1, ptr %4, align 8
  %16 = getelementptr inbounds i8, ptr %4, i64 4
  store i32 -1, ptr %16, align 4
  %17 = getelementptr inbounds i8, ptr %4, i64 8
  call void @llvm.memset.p0.i64(ptr noundef nonnull align 8 dereferenceable(16) %17, i8 0, i64 16, i1 false)
  %18 = load ptr, ptr %15, align 8
  %19 = getelementptr inbounds i8, ptr %18, i64 128
  %20 = load ptr, ptr %19, align 8
  %21 = call noundef i32 %20(ptr noundef nonnull align 8 dereferenceable(16) %15, ptr noundef nonnull align 8 dereferenceable(24) %4)
  %.not = icmp eq i32 %21, 0
  br i1 %.not, label %42, label %22

22:                                               ; preds = %10
  %23 = load ptr, ptr %11, align 8
  %24 = getelementptr inbounds i8, ptr %23, i64 104
  %25 = load ptr, ptr %24, align 8
  %26 = getelementptr inbounds i8, ptr %25, i64 8
  %27 = load ptr, ptr %26, align 8
  %28 = getelementptr inbounds i8, ptr %27, i64 16
  %29 = load ptr, ptr %28, align 8
  %30 = getelementptr inbounds i8, ptr %29, i64 32
  %31 = load ptr, ptr %30, align 8
  %32 = getelementptr inbounds i8, ptr %31, i64 20
  %33 = getelementptr inbounds i8, ptr %31, i64 28
  %34 = load i32, ptr %33, align 4
  %35 = load i32, ptr %32, align 4
  %36 = add i32 %34, 1
  %37 = sub i32 %36, %35
  %38 = sdiv i32 %37, %21
  %39 = sub i32 %38, %9
  call void @_ZN9QTreeView14setColumnWidthEii(ptr noundef nonnull align 8 dereferenceable(40) %25, i32 noundef 0, i32 noundef %39)
  br label %42

40:                                               ; preds = %2
  %41 = landingpad { ptr, i32 }
          cleanup
  call void @_ZN12QFontMetricsD1Ev(ptr noundef nonnull align 8 dereferenceable(8) %3) #18
  resume { ptr, i32 } %41

42:                                               ; preds = %22, %10
  %43 = load ptr, ptr %11, align 8
  %44 = getelementptr inbounds i8, ptr %43, i64 136
  %45 = load ptr, ptr %44, align 8
  call void @_ZN9QTreeView22resizeColumnToContentsEi(ptr noundef nonnull align 8 dereferenceable(40) %45, i32 noundef 0)
  %46 = load ptr, ptr %11, align 8
  %47 = getelementptr inbounds i8, ptr %46, i64 136
  %48 = load ptr, ptr %47, align 8
  call void @_ZN9QTreeView22resizeColumnToContentsEi(ptr noundef nonnull align 8 dereferenceable(40) %48, i32 noundef 2)
  %49 = load ptr, ptr %11, align 8
  %50 = getelementptr inbounds i8, ptr %49, i64 136
  %51 = load ptr, ptr %50, align 8
  %52 = getelementptr inbounds i8, ptr %51, i64 8
  %53 = load ptr, ptr %52, align 8
  %54 = getelementptr inbounds i8, ptr %53, i64 16
  %55 = load ptr, ptr %54, align 8
  %56 = getelementptr inbounds i8, ptr %55, i64 32
  %57 = load ptr, ptr %56, align 8
  %58 = getelementptr inbounds i8, ptr %57, i64 20
  %59 = getelementptr inbounds i8, ptr %57, i64 28
  %60 = load i32, ptr %59, align 4
  %61 = load i32, ptr %58, align 4
  %62 = call noundef i32 @_ZNK9QTreeView11columnWidthEi(ptr noundef nonnull align 8 dereferenceable(40) %51, i32 noundef 0)
  %63 = load ptr, ptr %11, align 8
  %64 = getelementptr inbounds i8, ptr %63, i64 136
  %65 = load ptr, ptr %64, align 8
  %66 = call noundef i32 @_ZNK9QTreeView11columnWidthEi(ptr noundef nonnull align 8 dereferenceable(40) %65, i32 noundef 2)
  %.neg20 = add i32 %60, 1
  %67 = add i32 %61, %62
  %68 = add i32 %67, %66
  %69 = sub i32 %.neg20, %68
  call void @_ZN9QTreeView14setColumnWidthEii(ptr noundef nonnull align 8 dereferenceable(40) %51, i32 noundef 1, i32 noundef %69)
  %70 = load ptr, ptr %11, align 8
  %71 = getelementptr inbounds i8, ptr %70, i64 200
  %72 = load ptr, ptr %71, align 8
  %73 = call noundef ptr @_ZNK17QAbstractItemView5modelEv(ptr noundef nonnull align 8 dereferenceable(40) %72)
  %.not16 = icmp eq ptr %73, null
  br i1 %.not16, label %.critedge, label %.lr.ph

.lr.ph:                                           ; preds = %42
  %74 = getelementptr inbounds i8, ptr %5, i64 4
  %75 = getelementptr inbounds i8, ptr %5, i64 8
  store i32 -1, ptr %5, align 8
  store i32 -1, ptr %74, align 4
  call void @llvm.memset.p0.i64(ptr noundef nonnull align 8 dereferenceable(16) %75, i8 0, i64 16, i1 false)
  %76 = load ptr, ptr %73, align 8
  %77 = getelementptr inbounds i8, ptr %76, i64 128
  %78 = load ptr, ptr %77, align 8
  %79 = call noundef i32 %78(ptr noundef nonnull align 8 dereferenceable(16) %73, ptr noundef nonnull align 8 dereferenceable(24) %5)
  %80 = add i32 %79, -1
  %81 = icmp sgt i32 %80, 0
  br i1 %81, label %.lr.ph25, label %.critedge

.lr.ph25:                                         ; preds = %.lr.ph, %.lr.ph25
  %.02224 = phi i32 [ %85, %.lr.ph25 ], [ 0, %.lr.ph ]
  %82 = load ptr, ptr %11, align 8
  %83 = getelementptr inbounds i8, ptr %82, i64 200
  %84 = load ptr, ptr %83, align 8
  call void @_ZN9QTreeView22resizeColumnToContentsEi(ptr noundef nonnull align 8 dereferenceable(40) %84, i32 noundef %.02224)
  %85 = add nuw nsw i32 %.02224, 1
  store i32 -1, ptr %5, align 8
  store i32 -1, ptr %74, align 4
  call void @llvm.memset.p0.i64(ptr noundef nonnull align 8 dereferenceable(16) %75, i8 0, i64 16, i1 false)
  %86 = load ptr, ptr %73, align 8
  %87 = getelementptr inbounds i8, ptr %86, i64 128
  %88 = load ptr, ptr %87, align 8
  %89 = call noundef i32 %88(ptr noundef nonnull align 8 dereferenceable(16) %73, ptr noundef nonnull align 8 dereferenceable(24) %5)
  %90 = add i32 %89, -1
  %91 = icmp slt i32 %85, %90
  br i1 %91, label %.lr.ph25, label %.critedge

.critedge:                                        ; preds = %.lr.ph25, %.lr.ph, %42
  %92 = load ptr, ptr %11, align 8
  %93 = getelementptr inbounds i8, ptr %92, i64 232
  %94 = load ptr, ptr %93, align 8
  call void @_ZN9QTreeView22resizeColumnToContentsEi(ptr noundef nonnull align 8 dereferenceable(40) %94, i32 noundef 0)
  %95 = load ptr, ptr %11, align 8
  %96 = getelementptr inbounds i8, ptr %95, i64 232
  %97 = load ptr, ptr %96, align 8
  %98 = call noundef i32 @_ZNK9QTreeView11columnWidthEi(ptr noundef nonnull align 8 dereferenceable(40) %97, i32 noundef 0)
  %99 = shl i32 %9, 1
  %100 = add i32 %98, %99
  call void @_ZN9QTreeView14setColumnWidthEii(ptr noundef nonnull align 8 dereferenceable(40) %97, i32 noundef 0, i32 noundef %100)
  %101 = load ptr, ptr %11, align 8
  %102 = getelementptr inbounds i8, ptr %101, i64 232
  %103 = load ptr, ptr %102, align 8
  %104 = mul i32 %9, 12
  call void @_ZN9QTreeView14setColumnWidthEii(ptr noundef nonnull align 8 dereferenceable(40) %103, i32 noundef 1, i32 noundef %104)
  %105 = load ptr, ptr %11, align 8
  %106 = getelementptr inbounds i8, ptr %105, i64 232
  %107 = load ptr, ptr %106, align 8
  call void @_ZN9QTreeView22resizeColumnToContentsEi(ptr noundef nonnull align 8 dereferenceable(40) %107, i32 noundef 2)
  call void @_ZN7QDialog9showEventEP10QShowEvent(ptr noundef nonnull align 8 dereferenceable(40) %0, ptr noundef %1)
  ret void
}